target datalayout = "e-m:e-p270:32:32-p271:32:32-p272:64:64-i64:64-i128:128-f80:128-n8:16:32:64-S128"
target triple = "x86_64-pc-linux-gnu"

%"class.boost::urls::detail::query_ref" = type <{ ptr, ptr, i64, i64, i64, i8, [7 x i8] }>
%"class.boost::urls::params_encoded_ref" = type { %"class.boost::urls::params_encoded_base", ptr }
%"class.boost::urls::params_encoded_base" = type { %"class.boost::urls::detail::query_ref" }
%"class.boost::urls::params_encoded_base::iterator" = type { %"struct.boost::urls::detail::params_iter_impl" }
%"struct.boost::urls::detail::params_iter_impl" = type { [8 x i8], %"class.boost::urls::detail::query_ref", i64, i64, i64, i64, i64, i64 }
%"class.boost::core::basic_string_view" = type { ptr, i64 }
%"struct.boost::urls::detail::param_encoded_iter" = type { %"struct.boost::urls::detail::any_params_iter.base", i8, i8, [5 x i8] }
%"struct.boost::urls::detail::any_params_iter.base" = type <{ ptr, %"class.boost::core::basic_string_view", %"class.boost::core::basic_string_view", i8 }>

; Function Attrs: mustprogress nounwind uwtable
define linkonce_odr hidden void @_ZN5boost4urls19params_encoded_base8iteratorC2ERKNS0_6detail16params_iter_implE(ptr noundef nonnull align 8 dereferenceable(104) %0, ptr noundef nonnull align 8 dereferenceable(104) %1) unnamed_addr #2 comdat align 2 {
  %3 = alloca ptr, align 8
  %4 = alloca ptr, align 8
  store ptr %0, ptr %3, align 8, !tbaa !3
  store ptr %1, ptr %4, align 8, !tbaa !3
  %5 = load ptr, ptr %3, align 8
  %6 = getelementptr inbounds nuw %"class.boost::urls::params_encoded_base::iterator", ptr %5, i32 0, i32 0
  %7 = load ptr, ptr %4, align 8, !tbaa !3
  call void @llvm.memcpy.p0.p0.i64(ptr align 8 %6, ptr align 8 %7, i64 104, i1 false)
  ret void
}

; Function Attrs: mustprogress uwtable
define void @_ZN5boost4urls18params_encoded_ref6insertENS0_19params_encoded_base8iteratorERKNS0_14param_pct_viewE(ptr dead_on_unwind noalias writable sret(%"class.boost::urls::params_encoded_base::iterator") align 8 %0, ptr noundef nonnull align 8 dereferenceable(56) %1, ptr noundef byval(%"class.boost::urls::params_encoded_base::iterator") align 8 %2, ptr noundef nonnull align 8 dereferenceable(49) %3) #4 align 2 personality ptr @__gxx_personality_v0 {
  %5 = alloca ptr, align 8
  %6 = alloca ptr, align 8
  %7 = alloca %"struct.boost::urls::detail::params_iter_impl", align 8
  %8 = alloca %"struct.boost::urls::detail::param_encoded_iter", align 8
  %9 = alloca ptr, align 8
  %10 = alloca i32, align 4
  store ptr %1, ptr %5, align 8, !tbaa !3
  store ptr %3, ptr %6, align 8, !tbaa !3
  %11 = load ptr, ptr %5, align 8
  call void @llvm.lifetime.start.p0(i64 104, ptr %7) #11
  %12 = getelementptr inbounds nuw %"class.boost::urls::params_encoded_ref", ptr %11, i32 0, i32 1
  %13 = load ptr, ptr %12, align 8, !tbaa !7
  %14 = getelementptr inbounds nuw %"class.boost::urls::params_encoded_base::iterator", ptr %2, i32 0, i32 0
  %15 = getelementptr inbounds nuw %"class.boost::urls::params_encoded_base::iterator", ptr %2, i32 0, i32 0
  call void @llvm.lifetime.start.p0(i64 48, ptr %8) #11
  %16 = load ptr, ptr %6, align 8, !tbaa !3
  call void @_ZN5boost4urls6detail18param_encoded_iterC1ERKNS0_14param_pct_viewE(ptr noundef nonnull align 8 dereferenceable(43) %8, ptr noundef nonnull align 8 dereferenceable(49) %16) #11
  invoke void @_ZN5boost4urls8url_base11edit_paramsERKNS0_6detail16params_iter_implES5_ONS2_15any_params_iterE(ptr dead_on_unwind writable sret(%"struct.boost::urls::detail::params_iter_impl") align 8 %7, ptr noundef nonnull align 8 dereferenceable(216) %13, ptr noundef nonnull align 8 dereferenceable(104) %14, ptr noundef nonnull align 8 dereferenceable(104) %15, ptr noundef nonnull align 8 dereferenceable(41) %8)
          to label %17 unwind label %19

17:                                               ; preds = %4
  invoke void @_ZN5boost4urls19params_encoded_base8iteratorC2ERKNS0_6detail16params_iter_implE(ptr noundef nonnull align 8 dereferenceable(104) %0, ptr noundef nonnull align 8 dereferenceable(104) %7)
          to label %18 unwind label %19

18:                                               ; preds = %17
  call void @_ZN5boost4urls6detail15any_params_iterD2Ev(ptr noundef nonnull align 8 dereferenceable(43) %8) #11
  call void @llvm.lifetime.end.p0(i64 48, ptr %8) #11
  call void @llvm.lifetime.end.p0(i64 104, ptr %7) #11
  ret void

19:                                               ; preds = %17, %4
  %20 = landingpad { ptr, i32 }
          cleanup
  %21 = extractvalue { ptr, i32 } %20, 0
  store ptr %21, ptr %9, align 8
  %22 = extractvalue { ptr, i32 } %20, 1
  store i32 %22, ptr %10, align 4
  call void @_ZN5boost4urls6detail15any_params_iterD2Ev(ptr noundef nonnull align 8 dereferenceable(43) %8) #11
  call void @llvm.lifetime.end.p0(i64 48, ptr %8) #11
  call void @llvm.lifetime.end.p0(i64 104, ptr %7) #11
  br label %23

23:                                               ; preds = %19
  %24 = load ptr, ptr %9, align 8
  %25 = load i32, ptr %10, align 4
  %26 = insertvalue { ptr, i32 } poison, ptr %24, 0
  %27 = insertvalue { ptr, i32 } %26, i32 %25, 1
  resume { ptr, i32 } %27
}